; Function Attrs: mustprogress uwtable
define noalias ptr @mi_heap_alloc_new(ptr noundef %0, i64 noundef %1) local_unnamed_addr #6 personality ptr @__gxx_personality_v0 {
  %3 = icmp ult i64 %1, 1025
  br i1 %3, label %4, label %mi_heap_malloc.exit, !prof !23

4:                                                ; preds = %2
  %5 = add nuw nsw i64 %1, 7
  %6 = lshr i64 %5, 3
  %7 = getelementptr inbounds nuw i8, ptr %0, i64 248
  %8 = getelementptr inbounds nuw [129 x ptr], ptr %7, i64 0, i64 %6
  %9 = load ptr, ptr %8, align 8, !tbaa !35
  %10 = getelementptr inbounds nuw i8, ptr %9, i64 16
  %11 = load ptr, ptr %10, align 8, !tbaa !31
  %12 = icmp eq ptr %11, null
  br i1 %12, label %mi_heap_malloc.exit, label %mi_heap_malloc.exit.thread, !prof !17

mi_heap_malloc.exit.thread:                       ; preds = %4
  %.val.i.i.i.i.i = load i64, ptr %11, align 8, !tbaa !20
  %13 = inttoptr i64 %.val.i.i.i.i.i to ptr
  store ptr %13, ptr %10, align 8, !tbaa !31
  %14 = getelementptr inbounds nuw i8, ptr %9, i64 32
  %15 = load i16, ptr %14, align 8, !tbaa !22
  %16 = add i16 %15, 1
  store i16 %16, ptr %14, align 8, !tbaa !22
  br label %21

mi_heap_malloc.exit:                              ; preds = %2, %4
  %17 = tail call noalias noundef ptr @_Z18_mi_malloc_genericP9mi_heap_smbm(ptr noundef %0, i64 noundef %1, i1 noundef zeroext false, i64 noundef 0) #55
  %18 = icmp eq ptr %17, null
  br i1 %18, label %19, label %21, !prof !53

19:                                               ; preds = %mi_heap_malloc.exit
  %20 = tail call noundef ptr @_Z15mi_heap_try_newP9mi_heap_smb(ptr noundef %0, i64 noundef %1, i1 noundef zeroext false)
  br label %21

21:                                               ; preds = %mi_heap_malloc.exit.thread, %mi_heap_malloc.exit, %19
  %.0 = phi ptr [ %20, %19 ], [ %17, %mi_heap_malloc.exit ], [ %11, %mi_heap_malloc.exit.thread ]
  ret ptr %.0
}